Certificate:
    Data:
        Version: 3 (0x2)
        Serial Number: 1 (0x1)
        Signature Algorithm: md5WithRSAEncryption
        Issuer: C=CH, O=CERN, OU=GD, CN=The Certification CA
        Validity
            Not Before: Nov 16 10:32:58 2006 GMT
            Not After : Nov 16 10:32:58 2007 GMT
        Subject: C=CH, O=CERN, OU=GD, CN=Test user 1
        Subject Public Key Info:
            Public Key Algorithm: rsaEncryption
            RSA Public Key: (1024 bit)
                Modulus (1024 bit):
                    00:d7:4b:0b:83:b5:d7:7d:70:39:9b:6b:99:93:33:
                    de:9c:e1:50:ed:80:ff:62:e9:d5:52:34:37:5f:18:
                    44:a6:32:c7:3f:02:6d:c5:44:d5:22:15:c5:74:ed:
                    88:b9:28:7f:5f:a7:17:ba:92:3e:26:cd:4f:a0:99:
                    ef:2d:f8:35:4a:01:84:fc:38:26:cb:09:43:1f:56:
                    88:21:5a:12:6a:d0:07:2c:18:e7:fa:ce:ab:f4:5e:
                    8c:e1:12:38:43:b5:90:46:96:be:a0:9a:ec:51:af:
                    ed:2e:f4:fa:ea:d8:f8:2a:43:78:15:f2:30:20:a0:
                    54:08:b5:d8:b1:f5:73:44:73
                Exponent: 65537 (0x10001)
        X509v3 extensions:
            X509v3 Basic Constraints: 
            CA:FALSE
            Netscape Comment: 
            OpenSSL Generated Certificate
            X509v3 Subject Key Identifier: 
            1E:79:ED:FB:50:ED:20:DA:55:B6:00:0F:AF:10:AB:21:A1:76:83:D6
            X509v3 Authority Key Identifier: 
            keyid:08:59:FE:38:7C:09:CA:AA:68:5E:E0:14:EE:06:AE:69:01:9D:77:A3
            DirName:/C=CH/O=CERN/OU=GD/CN=The Certification CA
            serial:00

    Signature Algorithm: md5WithRSAEncryption
        01:8e:4c:04:80:92:da:fa:f5:a8:16:3d:82:c7:ec:a9:65:bf:
        24:8e:fd:de:0e:9d:02:a6:b4:9b:e0:9d:e5:f9:4b:08:61:68:
        96:6e:2e:10:3a:68:a6:f1:ae:ed:21:de:f6:37:81:85:62:e4:
        b2:f6:aa:39:d2:b2:8f:7f:90:5b:d2:95:8a:86:4d:3c:08:38:
        4b:bf:b2:6c:33:06:f0:56:6e:09:19:df:b3:3d:76:af:6d:ec:
        81:29:76:df:da:43:1a:28:29:a7:1d:d6:8e:1b:9b:d7:46:cf:
        9e:bc:8d:5b:b9:89:b2:ac:29:18:24:85:66:b6:05:fb:48:24:
        f7:04
-----BEGIN CERTIFICATE-----
MIICyzCCAjSgAwIBAgIBATANBgkqhkiG9w0BAQQFADBIMQswCQYDVQQGEwJDSDEN
MAsGA1UEChMEQ0VSTjELMAkGA1UECxMCR0QxHTAbBgNVBAMTFFRoZSBDZXJ0aWZp
Y2F0aW9uIENBMB4XDTA2MTExNjEwMzI1OFoXDTA3MTExNjEwMzI1OFowPzELMAkG
A1UEBhMCQ0gxDTALBgNVBAoTBENFUk4xCzAJBgNVBAsTAkdEMRQwEgYDVQQDEwtU
ZXN0IHVzZXIgMTCBnzANBgkqhkiG9w0BAQEFAAOBjQAwgYkCgYEA10sLg7XXfXA5
m2uZkzPenOFQ7YD/YunVUjQ3XxhEpjLHPwJtxUTVIhXFdO2IuSh/X6cXupI+Js1P
oJnvLfg1SgGE/DgmywlDH1aIIVoSatAHLBjn+s6r9F6M4RI4Q7WQRpa+oJrsUa/t
LvT66tj4KkN4FfIwIKBUCLXYsfVzRHMCAwEAAaOBzTCByjAJBgNVHRMEAjAAMCwG
CWCGSAGG+EIBDQQfFh1PcGVuU1NMIEdlbmVyYXRlZCBDZXJ0aWZpY2F0ZTAdBgNV
HQ4EFgQUHnnt+1DtINpVtgAPrxCrIaF2g9YwcAYDVR0jBGkwZ4AUCFn+OHwJyqpo
XuAU7gauaQGdd6OhTKRKMEgxCzAJBgNVBAYTAkNIMQ0wCwYDVQQKEwRDRVJOMQsw
CQYDVQQLEwJHRDEdMBsGA1UEAxMUVGhlIENlcnRpZmljYXRpb24gQ0GCAQAwDQYJ
KoZIhvcNAQEEBQADgYEAAY5MBICS2vr1qBY9gsfsqWW/JI793g6dAqa0m+Cd5flL
CGFolm4uEDpopvGu7SHe9jeBhWLksvaqOdKyj3+QW9KVioZNPAg4S7+ybDMG8FZu
CRnfsz12r23sgSl239pDGigppx3Wjhub10bPnryNW7mJsqwpGCSFZrYF+0gk9wQ=
-----END CERTIFICATE-----
