Certificate:
    Data:
        Version: 3 (0x2)
        Serial Number: 6 (0x6)
        Signature Algorithm: md5WithRSAEncryption
        Issuer: C=CH, O=CERN, OU=GD, CN=The Certification CA
        Validity
            Not Before: Feb  2 14:38:44 2007 GMT
            Not After : Feb  2 14:38:44 2008 GMT
        Subject: C=CH, O=CERN, OU=GD, CN=Test user 3
        Subject Public Key Info:
            Public Key Algorithm: rsaEncryption
            RSA Public Key: (1024 bit)
                Modulus (1024 bit):
                    00:d5:bc:ee:e9:b9:7c:22:48:5c:4c:b7:ff:24:9f:
                    a5:22:c4:73:80:17:95:b4:f2:1d:be:05:0a:7a:dc:
                    8e:9b:20:e8:64:fd:32:6e:b5:00:59:65:78:fa:3f:
                    fa:62:0c:a9:cf:e5:9f:71:f3:eb:18:06:16:97:41:
                    fe:d6:55:76:3c:c3:8d:ed:24:9f:ec:b2:99:b1:bc:
                    69:92:69:85:d2:19:7c:e0:f1:8e:35:82:26:be:b3:
                    d2:96:20:2a:a5:a1:ed:5f:f0:f6:ff:b1:dd:bb:50:
                    ee:6f:af:fc:c7:65:53:34:45:81:35:d1:ad:fd:b1:
                    93:05:15:e3:65:27:9e:0a:69
                Exponent: 65537 (0x10001)
        X509v3 extensions:
            X509v3 Basic Constraints: 
            CA:FALSE
            Netscape Comment: 
            OpenSSL Generated Certificate
            X509v3 Subject Key Identifier: 
            71:ED:F7:63:16:8A:36:46:E8:D2:06:A9:08:EE:BC:91:C9:60:E1:D1
            X509v3 Authority Key Identifier: 
            keyid:08:59:FE:38:7C:09:CA:AA:68:5E:E0:14:EE:06:AE:69:01:9D:77:A3
            DirName:/C=CH/O=CERN/OU=GD/CN=The Certification CA
            serial:00

    Signature Algorithm: md5WithRSAEncryption
        44:e3:48:55:ce:5e:5e:5b:59:3e:dd:3b:8c:42:b8:45:28:92:
        c1:2f:a1:e6:d0:6e:86:19:65:bb:37:e2:c9:70:2a:8c:29:5a:
        64:d1:94:0c:de:44:99:d9:a7:14:56:46:d9:70:3d:f4:9c:51:
        e0:d9:a9:8a:07:75:88:e3:85:c2:d0:52:19:5e:2d:fd:ed:e4:
        48:ca:1a:15:bb:e6:9f:94:ca:0c:bd:d6:44:00:50:66:65:dc:
        88:8d:a6:ac:71:fd:23:6e:06:1b:67:84:d6:7c:c3:01:1d:56:
        03:12:cb:ce:32:cc:57:96:b5:06:60:84:a1:e7:a0:4f:bb:3d:
        ba:ce
-----BEGIN CERTIFICATE-----
MIICyzCCAjSgAwIBAgIBBjANBgkqhkiG9w0BAQQFADBIMQswCQYDVQQGEwJDSDEN
MAsGA1UEChMEQ0VSTjELMAkGA1UECxMCR0QxHTAbBgNVBAMTFFRoZSBDZXJ0aWZp
Y2F0aW9uIENBMB4XDTA3MDIwMjE0Mzg0NFoXDTA4MDIwMjE0Mzg0NFowPzELMAkG
A1UEBhMCQ0gxDTALBgNVBAoTBENFUk4xCzAJBgNVBAsTAkdEMRQwEgYDVQQDEwtU
ZXN0IHVzZXIgMzCBnzANBgkqhkiG9w0BAQEFAAOBjQAwgYkCgYEA1bzu6bl8Ikhc
TLf/JJ+lIsRzgBeVtPIdvgUKetyOmyDoZP0ybrUAWWV4+j/6Ygypz+WfcfPrGAYW
l0H+1lV2PMON7SSf7LKZsbxpkmmF0hl84PGONYImvrPSliAqpaHtX/D2/7Hdu1Du
b6/8x2VTNEWBNdGt/bGTBRXjZSeeCmkCAwEAAaOBzTCByjAJBgNVHRMEAjAAMCwG
CWCGSAGG+EIBDQQfFh1PcGVuU1NMIEdlbmVyYXRlZCBDZXJ0aWZpY2F0ZTAdBgNV
HQ4EFgQUce33YxaKNkbo0gapCO68kclg4dEwcAYDVR0jBGkwZ4AUCFn+OHwJyqpo
XuAU7gauaQGdd6OhTKRKMEgxCzAJBgNVBAYTAkNIMQ0wCwYDVQQKEwRDRVJOMQsw
CQYDVQQLEwJHRDEdMBsGA1UEAxMUVGhlIENlcnRpZmljYXRpb24gQ0GCAQAwDQYJ
KoZIhvcNAQEEBQADgYEARONIVc5eXltZPt07jEK4RSiSwS+h5tBuhhlluzfiyXAq
jClaZNGUDN5EmdmnFFZG2XA99JxR4Nmpigd1iOOFwtBSGV4t/e3kSMoaFbvmn5TK
DL3WRABQZmXciI2mrHH9I24GG2eE1nzDAR1WAxLLzjLMV5a1BmCEoeegT7s9us4=
-----END CERTIFICATE-----
