Certificate:
    Data:
        Version: 3 (0x2)
        Serial Number: 7 (0x7)
        Signature Algorithm: md5WithRSAEncryption
        Issuer: C=CH, O=CERN, OU=GD, CN=The Certification CA
        Validity
            Not Before: Feb  2 14:40:12 2007 GMT
            Not After : Feb  2 14:40:12 2008 GMT
        Subject: C=CH, O=CERN, OU=GD, CN=Test user 4
        Subject Public Key Info:
            Public Key Algorithm: rsaEncryption
            RSA Public Key: (1024 bit)
                Modulus (1024 bit):
                    00:c1:0c:7d:08:2b:10:f4:9a:95:5a:2a:3e:c4:63:
                    4f:26:67:86:b7:7b:fc:02:6e:2c:a6:75:e3:ef:9d:
                    f1:ec:ec:8a:75:ae:62:f6:fc:5f:d5:91:d6:91:93:
                    97:87:4d:be:ab:5b:28:c4:75:16:2e:2d:68:34:f7:
                    60:f4:ef:83:42:6a:ca:34:a0:c8:50:bd:14:8b:5d:
                    88:25:cc:b8:f3:8f:f3:c9:46:da:51:8a:e8:31:0f:
                    95:e0:c8:dd:94:32:97:67:e3:ac:24:74:23:77:5f:
                    45:a5:7f:b9:b5:fa:03:97:06:fa:49:20:a1:52:99:
                    89:5d:a9:80:5c:a8:f9:79:dd
                Exponent: 65537 (0x10001)
        X509v3 extensions:
            X509v3 Basic Constraints: 
            CA:FALSE
            Netscape Comment: 
            OpenSSL Generated Certificate
            X509v3 Subject Key Identifier: 
            08:8D:3F:54:5A:E3:5A:1D:00:2E:4F:92:9E:15:B4:BD:BB:5D:F4:0D
            X509v3 Authority Key Identifier: 
            keyid:08:59:FE:38:7C:09:CA:AA:68:5E:E0:14:EE:06:AE:69:01:9D:77:A3
            DirName:/C=CH/O=CERN/OU=GD/CN=The Certification CA
            serial:00

    Signature Algorithm: md5WithRSAEncryption
        69:07:3a:b9:6b:51:51:bf:d6:33:c2:36:4f:4d:4b:bb:8c:e1:
        19:01:83:d2:6c:e5:8a:3f:2d:ae:ff:84:20:df:93:78:6f:76:
        5b:81:6d:a6:54:aa:0e:0a:e4:56:66:5e:b8:1b:6f:d9:33:ca:
        16:49:77:4b:b8:df:f3:2b:15:e4:89:9f:2d:3f:94:fc:71:00:
        b8:a7:65:c3:66:61:fe:38:cb:fc:19:b3:79:36:a1:9d:9b:6b:
        f7:5b:71:4e:11:1c:58:c9:9b:13:d9:9b:8e:ae:5f:04:da:b6:
        0f:78:e9:6a:18:ad:5c:e3:be:14:5f:aa:59:90:92:e5:22:e1:
        98:b9
-----BEGIN CERTIFICATE-----
MIICyzCCAjSgAwIBAgIBBzANBgkqhkiG9w0BAQQFADBIMQswCQYDVQQGEwJDSDEN
MAsGA1UEChMEQ0VSTjELMAkGA1UECxMCR0QxHTAbBgNVBAMTFFRoZSBDZXJ0aWZp
Y2F0aW9uIENBMB4XDTA3MDIwMjE0NDAxMloXDTA4MDIwMjE0NDAxMlowPzELMAkG
A1UEBhMCQ0gxDTALBgNVBAoTBENFUk4xCzAJBgNVBAsTAkdEMRQwEgYDVQQDEwtU
ZXN0IHVzZXIgNDCBnzANBgkqhkiG9w0BAQEFAAOBjQAwgYkCgYEAwQx9CCsQ9JqV
Wio+xGNPJmeGt3v8Am4spnXj753x7OyKda5i9vxf1ZHWkZOXh02+q1soxHUWLi1o
NPdg9O+DQmrKNKDIUL0Ui12IJcy484/zyUbaUYroMQ+V4MjdlDKXZ+OsJHQjd19F
pX+5tfoDlwb6SSChUpmJXamAXKj5ed0CAwEAAaOBzTCByjAJBgNVHRMEAjAAMCwG
CWCGSAGG+EIBDQQfFh1PcGVuU1NMIEdlbmVyYXRlZCBDZXJ0aWZpY2F0ZTAdBgNV
HQ4EFgQUCI0/VFrjWh0ALk+SnhW0vbtd9A0wcAYDVR0jBGkwZ4AUCFn+OHwJyqpo
XuAU7gauaQGdd6OhTKRKMEgxCzAJBgNVBAYTAkNIMQ0wCwYDVQQKEwRDRVJOMQsw
CQYDVQQLEwJHRDEdMBsGA1UEAxMUVGhlIENlcnRpZmljYXRpb24gQ0GCAQAwDQYJ
KoZIhvcNAQEEBQADgYEAaQc6uWtRUb/WM8I2T01Lu4zhGQGD0mzlij8trv+EIN+T
eG92W4FtplSqDgrkVmZeuBtv2TPKFkl3S7jf8ysV5ImfLT+U/HEAuKdlw2Zh/jjL
/BmzeTahnZtr91txThEcWMmbE9mbjq5fBNq2D3jpahitXOO+FF+qWZCS5SLhmLk=
-----END CERTIFICATE-----
