Certificate:
    Data:
        Version: 3 (0x2)
        Serial Number: 5 (0x5)
        Signature Algorithm: md5WithRSAEncryption
        Issuer: C=CH, O=CERN, OU=GD, CN=The Certification CA
        Validity
            Not Before: Feb  2 14:36:19 2007 GMT
            Not After : Feb  2 14:36:19 2008 GMT
        Subject: C=CH, O=CERN, OU=GD, CN=Test user 2
        Subject Public Key Info:
            Public Key Algorithm: rsaEncryption
            RSA Public Key: (1024 bit)
                Modulus (1024 bit):
                    00:99:2a:7f:15:80:84:2d:2d:5d:75:ff:e9:95:89:
                    71:e0:23:26:b4:15:57:5b:cf:d0:c8:b6:8e:38:9c:
                    d0:e0:05:a8:7f:a4:c0:33:5f:f8:12:f5:0f:63:55:
                    33:4e:ce:34:85:79:a9:dc:74:de:d2:a4:95:b6:08:
                    b2:e5:75:77:4b:cb:a0:5e:4b:9e:06:62:2c:05:e8:
                    02:a9:ad:b1:9b:70:9b:d7:bd:91:a6:85:68:3d:2e:
                    4c:01:66:b6:c6:c3:8b:4e:2b:87:c1:65:3a:24:c1:
                    60:f3:b5:eb:7b:23:f1:c2:d7:36:9d:3c:3d:3c:7d:
                    b4:67:62:79:f8:6c:b6:bc:2f
                Exponent: 65537 (0x10001)
        X509v3 extensions:
            X509v3 Basic Constraints: 
            CA:FALSE
            Netscape Comment: 
            OpenSSL Generated Certificate
            X509v3 Subject Key Identifier: 
            A7:7D:78:6E:6C:F1:68:71:04:FF:E2:D0:9C:D8:C4:7B:2B:83:A1:89
            X509v3 Authority Key Identifier: 
            keyid:08:59:FE:38:7C:09:CA:AA:68:5E:E0:14:EE:06:AE:69:01:9D:77:A3
            DirName:/C=CH/O=CERN/OU=GD/CN=The Certification CA
            serial:00

    Signature Algorithm: md5WithRSAEncryption
        11:22:7f:bb:96:05:b8:f8:3d:34:36:dc:76:eb:7e:9d:62:f6:
        56:9a:8b:02:54:df:0e:75:2c:69:a4:85:62:44:e8:4b:a2:cf:
        a9:89:f4:91:87:05:74:f3:02:2d:5d:99:45:de:65:9a:02:90:
        6f:33:88:c4:53:a9:72:9a:95:36:d5:64:13:64:38:26:a2:3c:
        15:99:c7:38:b6:dd:90:d6:50:6f:9e:49:76:f1:26:6d:66:a3:
        60:aa:c9:66:93:84:a1:22:0c:0d:f6:95:73:3d:62:c2:43:10:
        20:f9:dc:03:f2:2f:3e:51:d6:b2:81:6c:4d:61:78:60:0b:25:
        1c:84
-----BEGIN CERTIFICATE-----
MIICyzCCAjSgAwIBAgIBBTANBgkqhkiG9w0BAQQFADBIMQswCQYDVQQGEwJDSDEN
MAsGA1UEChMEQ0VSTjELMAkGA1UECxMCR0QxHTAbBgNVBAMTFFRoZSBDZXJ0aWZp
Y2F0aW9uIENBMB4XDTA3MDIwMjE0MzYxOVoXDTA4MDIwMjE0MzYxOVowPzELMAkG
A1UEBhMCQ0gxDTALBgNVBAoTBENFUk4xCzAJBgNVBAsTAkdEMRQwEgYDVQQDEwtU
ZXN0IHVzZXIgMjCBnzANBgkqhkiG9w0BAQEFAAOBjQAwgYkCgYEAmSp/FYCELS1d
df/plYlx4CMmtBVXW8/QyLaOOJzQ4AWof6TAM1/4EvUPY1UzTs40hXmp3HTe0qSV
tgiy5XV3S8ugXkueBmIsBegCqa2xm3Cb172RpoVoPS5MAWa2xsOLTiuHwWU6JMFg
87XreyPxwtc2nTw9PH20Z2J5+Gy2vC8CAwEAAaOBzTCByjAJBgNVHRMEAjAAMCwG
CWCGSAGG+EIBDQQfFh1PcGVuU1NMIEdlbmVyYXRlZCBDZXJ0aWZpY2F0ZTAdBgNV
HQ4EFgQUp314bmzxaHEE/+LQnNjEeyuDoYkwcAYDVR0jBGkwZ4AUCFn+OHwJyqpo
XuAU7gauaQGdd6OhTKRKMEgxCzAJBgNVBAYTAkNIMQ0wCwYDVQQKEwRDRVJOMQsw
CQYDVQQLEwJHRDEdMBsGA1UEAxMUVGhlIENlcnRpZmljYXRpb24gQ0GCAQAwDQYJ
KoZIhvcNAQEEBQADgYEAESJ/u5YFuPg9NDbcdut+nWL2VpqLAlTfDnUsaaSFYkTo
S6LPqYn0kYcFdPMCLV2ZRd5lmgKQbzOIxFOpcpqVNtVkE2Q4JqI8FZnHOLbdkNZQ
b55JdvEmbWajYKrJZpOEoSIMDfaVcz1iwkMQIPncA/IvPlHWsoFsTWF4YAslHIQ=
-----END CERTIFICATE-----
